; Function Attrs: nounwind uwtable
define dso_local noundef ptr @ExecStoreHeapTuple(ptr noundef %0, ptr noundef returned captures(ret: address, provenance) %1, i1 noundef zeroext %2) local_unnamed_addr #1 {
  %4 = getelementptr inbounds nuw i8, ptr %1, i64 8
  %5 = load ptr, ptr %4, align 8
  %.not = icmp eq ptr %5, @TTSOpsHeapTuple
  br i1 %.not, label %9, label %6, !prof !4

6:                                                ; preds = %3
  %7 = tail call zeroext i1 @errstart_cold(i32 noundef 21, ptr noundef null) #15
  tail call void @llvm.assume(i1 %7)
  %8 = tail call i32 (ptr, ...) @errmsg_internal(ptr noundef nonnull @.str) #14
  tail call void @errfinish(ptr noundef nonnull @.str.1, i32 noundef 1551, ptr noundef nonnull @__func__.ExecStoreHeapTuple) #14
  unreachable

9:                                                ; preds = %3
  %10 = getelementptr inbounds nuw i8, ptr %1, i64 4
  %11 = load i16, ptr %10, align 4
  %12 = and i16 %11, 4
  %.not.i.i = icmp eq i16 %12, 0
  br i1 %.not.i.i, label %tts_heap_clear.exit.i, label %13

13:                                               ; preds = %9
  %14 = getelementptr inbounds nuw i8, ptr %1, i64 64
  %15 = load ptr, ptr %14, align 8
  tail call void @heap_freetuple(ptr noundef %15) #14
  %16 = load i16, ptr %10, align 4
  br label %tts_heap_clear.exit.i

tts_heap_clear.exit.i:                            ; preds = %13, %9
  %17 = phi i16 [ %16, %13 ], [ %11, %9 ]
  %18 = getelementptr inbounds nuw i8, ptr %1, i64 6
  %19 = getelementptr inbounds nuw i8, ptr %1, i64 48
  store i16 -1, ptr %19, align 2
  %20 = getelementptr inbounds nuw i8, ptr %1, i64 50
  store i16 -1, ptr %20, align 2
  %21 = getelementptr inbounds nuw i8, ptr %1, i64 52
  store i16 0, ptr %21, align 2
  %22 = getelementptr inbounds nuw i8, ptr %1, i64 72
  %23 = getelementptr inbounds nuw i8, ptr %1, i64 64
  store i16 0, ptr %18, align 2
  store ptr %0, ptr %23, align 8
  store i32 0, ptr %22, align 8
  %24 = and i16 %17, -7
  store i16 %24, ptr %10, align 4
  %25 = getelementptr inbounds nuw i8, ptr %0, i64 4
  tail call void @llvm.memcpy.p0.p0.i64(ptr noundef nonnull align 8 dereferenceable(6) %19, ptr noundef nonnull align 4 dereferenceable(6) %25, i64 6, i1 false)
  br i1 %2, label %26, label %tts_heap_store_tuple.exit

26:                                               ; preds = %tts_heap_clear.exit.i
  %27 = or disjoint i16 %24, 4
  store i16 %27, ptr %10, align 4
  br label %tts_heap_store_tuple.exit

tts_heap_store_tuple.exit:                        ; preds = %tts_heap_clear.exit.i, %26
  %28 = getelementptr inbounds nuw i8, ptr %0, i64 12
  %29 = load i32, ptr %28, align 4
  %30 = getelementptr inbounds nuw i8, ptr %1, i64 56
  store i32 %29, ptr %30, align 8
  ret ptr %1
}